target datalayout = "e-m:e-p270:32:32-p271:32:32-p272:64:64-i64:64-i128:128-f80:128-n8:16:32:64-S128"
target triple = "x86_64-pc-linux-gnu"

@advertise_object_info = internal global i32 -1, align 4
@.str.16 = private unnamed_addr constant [29 x i8] c"transfer.advertiseobjectinfo\00", align 1

; Function Attrs: nounwind uwtable
define internal i32 @object_info_advertise(ptr noundef %0, ptr noundef %1) #0 {
  %3 = alloca ptr, align 8
  %4 = alloca ptr, align 8
  store ptr %0, ptr %3, align 8, !tbaa !4
  store ptr %1, ptr %4, align 8, !tbaa !22
  %5 = load i32, ptr @advertise_object_info, align 4, !tbaa !25
  %6 = icmp eq i32 %5, -1
  br i1 %6, label %7, label %12

7:                                                ; preds = %2
  %8 = load ptr, ptr %3, align 8, !tbaa !4
  %9 = call i32 @repo_config_get_bool(ptr noundef %8, ptr noundef @.str.16, ptr noundef @advertise_object_info)
  %10 = icmp ne i32 %9, 0
  br i1 %10, label %11, label %12

11:                                               ; preds = %7
  store i32 0, ptr @advertise_object_info, align 4, !tbaa !25
  br label %12

12:                                               ; preds = %11, %7, %2
  %13 = load i32, ptr @advertise_object_info, align 4, !tbaa !25
  ret i32 %13
}