; Function Attrs: nounwind uwtable
define internal i32 @object_info_advertise(ptr noundef %0, ptr readnone captures(none) %1) #0 {
  %3 = load i32, ptr @advertise_object_info, align 4, !tbaa !29
  %4 = icmp eq i32 %3, -1
  br i1 %4, label %5, label %8

5:                                                ; preds = %2
  %6 = tail call i32 @repo_config_get_bool(ptr noundef %0, ptr noundef nonnull @.str.16, ptr noundef nonnull @advertise_object_info) #7
  %.not = icmp eq i32 %6, 0
  br i1 %.not, label %._crit_edge, label %7

._crit_edge:                                      ; preds = %5
  %.pre = load i32, ptr @advertise_object_info, align 4, !tbaa !29
  br label %8

7:                                                ; preds = %5
  store i32 0, ptr @advertise_object_info, align 4, !tbaa !29
  br label %8

8:                                                ; preds = %._crit_edge, %7, %2
  %9 = phi i32 [ %.pre, %._crit_edge ], [ 0, %7 ], [ %3, %2 ]
  ret i32 %9
}